; ModuleID = 'source-C-CXX/29/217.c'
source_filename = "source-C-CXX/29/217.c"
target datalayout = "e-m:e-p270:32:32-p271:32:32-p272:64:64-i64:64-f80:128-n8:16:32:64-S128"
target triple = "x86_64-pc-linux-gnu"

@.str = private unnamed_addr constant [3 x i8] c"%d\00", align 1

; Function Attrs: nofree nounwind sspstrong uwtable
define dso_local i32 @main() local_unnamed_addr #0 {
  %1 = alloca i32, align 4
  %2 = bitcast i32* %1 to i8*
  call void @llvm.lifetime.start.p0i8(i64 4, i8* nonnull %2) #3
  %3 = call i32 (i8*, ...) @__isoc99_scanf(i8* getelementptr inbounds ([3 x i8], [3 x i8]* @.str, i64 0, i64 0), i32* nonnull %1)
  %4 = load i32, i32* %1, align 4, !tbaa !5
  %5 = icmp slt i32 %4, 1
  br i1 %5, label %28, label %6

6:                                                ; preds = %0
  %7 = add nuw i32 %4, 1
  %8 = zext i32 %7 to i64
  br label %9

9:                                                ; preds = %6, %9
  %10 = phi i64 [ 1, %6 ], [ %26, %9 ]
  %11 = phi i64 [ 0, %6 ], [ %25, %9 ]
  %12 = trunc i64 %10 to i32
  %13 = urem i32 %12, 7
  %14 = icmp eq i32 %13, 0
  %15 = urem i32 %12, 10
  %16 = icmp eq i32 %15, 7
  %17 = or i1 %14, %16
  %18 = trunc i64 %10 to i32
  %19 = add i32 %18, -70
  %20 = icmp ult i32 %19, 10
  %21 = select i1 %17, i1 true, i1 %20
  %22 = select i1 %21, i32 0, i32 %12
  %23 = mul nsw i32 %22, %22
  %24 = zext i32 %23 to i64
  %25 = add nuw nsw i64 %11, %24
  %26 = add nuw nsw i64 %10, 1
  %27 = icmp eq i64 %26, %8
  br i1 %27, label %28, label %9, !llvm.loop !9

28:                                               ; preds = %9, %0
  %29 = phi i64 [ 0, %0 ], [ %25, %9 ]
  %30 = call i32 (i8*, ...) @printf(i8* nonnull dereferenceable(1) getelementptr inbounds ([3 x i8], [3 x i8]* @.str, i64 0, i64 0), i64 %29)
  call void @llvm.lifetime.end.p0i8(i64 4, i8* nonnull %2) #3
  ret i32 0
}

; Function Attrs: argmemonly mustprogress nofree nosync nounwind willreturn
declare void @llvm.lifetime.start.p0i8(i64 immarg, i8* nocapture) #1

; Function Attrs: nofree nounwind
declare noundef i32 @__isoc99_scanf(i8* nocapture noundef readonly, ...) local_unnamed_addr #2

; Function Attrs: nofree nounwind
declare noundef i32 @printf(i8* nocapture noundef readonly, ...) local_unnamed_addr #2

; Function Attrs: argmemonly mustprogress nofree nosync nounwind willreturn
declare void @llvm.lifetime.end.p0i8(i64 immarg, i8* nocapture) #1


!llvm.module.flags = !{!0, !1, !2, !3}
!llvm.ident = !{!4}

!0 = !{i32 1, !"wchar_size", i32 4}
!1 = !{i32 7, !"PIC Level", i32 2}
!2 = !{i32 7, !"PIE Level", i32 2}
!3 = !{i32 7, !"uwtable", i32 1}
!4 = !{!"clang version 13.0.0"}
!5 = !{!6, !6, i64 0}
!6 = !{!"int", !7, i64 0}
!7 = !{!"omnipotent char", !8, i64 0}
!8 = !{!"Simple C/C++ TBAA"}
!9 = distinct !{!9, !10}
!10 = !{!"llvm.loop.mustprogress"}
